; Function Attrs: nounwind uwtable
define ptr @l_Std_Range_forIn_x27_loop___at_Lean_Elab_FixedParams_Info_setCallerParam___spec__1___boxed(ptr noundef %0, ptr noundef %1, ptr noundef %2, ptr noundef %3, ptr noundef %4, ptr noundef %5, ptr noundef %6, ptr noundef %7, ptr noundef %8, ptr noundef %9, ptr noundef readnone captures(none) %10, ptr noundef readnone captures(none) %11) local_unnamed_addr #1 {
  %13 = tail call ptr @l_Std_Range_forIn_x27_loop___at_Lean_Elab_FixedParams_Info_setCallerParam___spec__1(ptr noundef %0, ptr noundef %1, ptr noundef %2, ptr noundef %3, ptr noundef %4, ptr noundef %5, ptr poison, ptr noundef %7, ptr noundef %8, ptr noundef %9, ptr poison, ptr poison)
  %14 = ptrtoint ptr %7 to i64
  %15 = and i64 %14, 1
  %.not = icmp eq i64 %15, 0
  br i1 %.not, label %16, label %lean_dec.exit23

16:                                               ; preds = %12
  %17 = load i32, ptr %7, align 4, !tbaa !4
  %18 = icmp sgt i32 %17, 1
  br i1 %18, label %19, label %21, !prof !11

19:                                               ; preds = %16
  %20 = add nsw i32 %17, -1
  store i32 %20, ptr %7, align 4, !tbaa !4
  br label %lean_dec.exit23

21:                                               ; preds = %16
  %.not.i = icmp eq i32 %17, 0
  br i1 %.not.i, label %lean_dec.exit23, label %22

22:                                               ; preds = %21
  tail call void @lean_dec_ref_cold(ptr noundef nonnull %7) #5
  br label %lean_dec.exit23

lean_dec.exit23:                                  ; preds = %22, %21, %19, %12
  %23 = ptrtoint ptr %6 to i64
  %24 = and i64 %23, 1
  %.not34 = icmp eq i64 %24, 0
  br i1 %.not34, label %25, label %lean_dec.exit22

25:                                               ; preds = %lean_dec.exit23
  %26 = load i32, ptr %6, align 4, !tbaa !4
  %27 = icmp sgt i32 %26, 1
  br i1 %27, label %28, label %30, !prof !11

28:                                               ; preds = %25
  %29 = add nsw i32 %26, -1
  store i32 %29, ptr %6, align 4, !tbaa !4
  br label %lean_dec.exit22

30:                                               ; preds = %25
  %.not.i24 = icmp eq i32 %26, 0
  br i1 %.not.i24, label %lean_dec.exit22, label %31

31:                                               ; preds = %30
  tail call void @lean_dec_ref_cold(ptr noundef nonnull %6) #5
  br label %lean_dec.exit22

lean_dec.exit22:                                  ; preds = %31, %30, %28, %lean_dec.exit23
  %32 = ptrtoint ptr %4 to i64
  %33 = and i64 %32, 1
  %.not35 = icmp eq i64 %33, 0
  br i1 %.not35, label %34, label %lean_dec.exit21

34:                                               ; preds = %lean_dec.exit22
  %35 = load i32, ptr %4, align 4, !tbaa !4
  %36 = icmp sgt i32 %35, 1
  br i1 %36, label %37, label %39, !prof !11

37:                                               ; preds = %34
  %38 = add nsw i32 %35, -1
  store i32 %38, ptr %4, align 4, !tbaa !4
  br label %lean_dec.exit21

39:                                               ; preds = %34
  %.not.i26 = icmp eq i32 %35, 0
  br i1 %.not.i26, label %lean_dec.exit21, label %40

40:                                               ; preds = %39
  tail call void @lean_dec_ref_cold(ptr noundef nonnull %4) #5
  br label %lean_dec.exit21

lean_dec.exit21:                                  ; preds = %40, %39, %37, %lean_dec.exit22
  %41 = ptrtoint ptr %2 to i64
  %42 = and i64 %41, 1
  %.not36 = icmp eq i64 %42, 0
  br i1 %.not36, label %43, label %lean_dec.exit20

43:                                               ; preds = %lean_dec.exit21
  %44 = load i32, ptr %2, align 4, !tbaa !4
  %45 = icmp sgt i32 %44, 1
  br i1 %45, label %46, label %48, !prof !11

46:                                               ; preds = %43
  %47 = add nsw i32 %44, -1
  store i32 %47, ptr %2, align 4, !tbaa !4
  br label %lean_dec.exit20

48:                                               ; preds = %43
  %.not.i28 = icmp eq i32 %44, 0
  br i1 %.not.i28, label %lean_dec.exit20, label %49

49:                                               ; preds = %48
  tail call void @lean_dec_ref_cold(ptr noundef nonnull %2) #5
  br label %lean_dec.exit20

lean_dec.exit20:                                  ; preds = %49, %48, %46, %lean_dec.exit21
  %50 = ptrtoint ptr %1 to i64
  %51 = and i64 %50, 1
  %.not37 = icmp eq i64 %51, 0
  br i1 %.not37, label %52, label %lean_dec.exit19

52:                                               ; preds = %lean_dec.exit20
  %53 = load i32, ptr %1, align 4, !tbaa !4
  %54 = icmp sgt i32 %53, 1
  br i1 %54, label %55, label %57, !prof !11

55:                                               ; preds = %52
  %56 = add nsw i32 %53, -1
  store i32 %56, ptr %1, align 4, !tbaa !4
  br label %lean_dec.exit19

57:                                               ; preds = %52
  %.not.i30 = icmp eq i32 %53, 0
  br i1 %.not.i30, label %lean_dec.exit19, label %58

58:                                               ; preds = %57
  tail call void @lean_dec_ref_cold(ptr noundef nonnull %1) #5
  br label %lean_dec.exit19

lean_dec.exit19:                                  ; preds = %58, %57, %55, %lean_dec.exit20
  %59 = ptrtoint ptr %0 to i64
  %60 = and i64 %59, 1
  %.not38 = icmp eq i64 %60, 0
  br i1 %.not38, label %61, label %lean_dec.exit

61:                                               ; preds = %lean_dec.exit19
  %62 = load i32, ptr %0, align 4, !tbaa !4
  %63 = icmp sgt i32 %62, 1
  br i1 %63, label %64, label %66, !prof !11

64:                                               ; preds = %61
  %65 = add nsw i32 %62, -1
  store i32 %65, ptr %0, align 4, !tbaa !4
  br label %lean_dec.exit

66:                                               ; preds = %61
  %.not.i32 = icmp eq i32 %62, 0
  br i1 %.not.i32, label %lean_dec.exit, label %67

67:                                               ; preds = %66
  tail call void @lean_dec_ref_cold(ptr noundef nonnull %0) #5
  br label %lean_dec.exit

lean_dec.exit:                                    ; preds = %67, %66, %64, %lean_dec.exit19
  ret ptr %13
}